; Function Attrs: mustprogress uwtable
define internal noundef ptr @"_ZNSt17_Function_handlerIFPN7rocksdb16CompactionFilterERKNSt7__cxx1112basic_stringIcSt11char_traitsIcESaIcEEEPSt10unique_ptrIS1_St14default_deleteIS1_EEPS8_EZ24RegisterCassandraObjectsE3$_1E9_M_invokeERKSt9_Any_dataSA_OSF_OSG_"(ptr nocapture nonnull readnone align 8 %__functor, ptr nocapture nonnull readnone align 8 %__args, ptr nocapture nonnull readnone align 8 %__args1, ptr nocapture nonnull readnone align 8 %__args3) #3 align 2 personality ptr @__gxx_personality_v0 {
entry:
  %call.i.i.i = tail call noalias noundef nonnull dereferenceable(48) ptr @_Znwm(i64 noundef 48) #21
  invoke void @_ZN7rocksdb9cassandra25CassandraCompactionFilterC1Ebi(ptr noundef nonnull align 8 dereferenceable(48) %call.i.i.i, i1 noundef zeroext false, i32 noundef 0)
          to label %"_ZSt10__invoke_rIPN7rocksdb16CompactionFilterERZ24RegisterCassandraObjectsE3$_1JRKNSt7__cxx1112basic_stringIcSt11char_traitsIcESaIcEEEPSt10unique_ptrIS1_St14default_deleteIS1_EEPSA_EENSt9enable_ifIX16is_invocable_r_vIT_T0_DpT1_EESK_E4typeEOSL_DpOSM_.exit" unwind label %lpad.i.i.i

lpad.i.i.i:                                       ; preds = %entry
  %0 = landingpad { ptr, i32 }
          cleanup
  tail call void @_ZdlPv(ptr noundef nonnull %call.i.i.i) #20
  resume { ptr, i32 } %0

"_ZSt10__invoke_rIPN7rocksdb16CompactionFilterERZ24RegisterCassandraObjectsE3$_1JRKNSt7__cxx1112basic_stringIcSt11char_traitsIcESaIcEEEPSt10unique_ptrIS1_St14default_deleteIS1_EEPSA_EENSt9enable_ifIX16is_invocable_r_vIT_T0_DpT1_EESK_E4typeEOSL_DpOSM_.exit": ; preds = %entry
  ret ptr %call.i.i.i
}